target datalayout = "e-m:e-p270:32:32-p271:32:32-p272:64:64-i64:64-i128:128-f80:128-n8:16:32:64-S128"
target triple = "x86_64-pc-linux-gnu"

; Function Attrs: nounwind uwtable
define internal i32 @Abc_LitNot(i32 noundef %0) #0 {
  %2 = alloca i32, align 4
  store i32 %0, ptr %2, align 4
  %3 = load i32, ptr %2, align 4
  %4 = xor i32 %3, 1
  ret i32 %4
}

; Function Attrs: nounwind uwtable
define void @Cba_BlastMinus(ptr noundef %0, ptr noundef %1, i32 noundef %2, ptr noundef %3) #0 {
  %5 = alloca ptr, align 8
  %6 = alloca ptr, align 8
  %7 = alloca i32, align 4
  %8 = alloca ptr, align 8
  %9 = alloca ptr, align 8
  %10 = alloca i32, align 4
  %11 = alloca i32, align 4
  store ptr %0, ptr %5, align 8
  store ptr %1, ptr %6, align 8
  store i32 %2, ptr %7, align 4
  store ptr %3, ptr %8, align 8
  %12 = load ptr, ptr %8, align 8
  %13 = load ptr, ptr %6, align 8
  %14 = load i32, ptr %7, align 4
  %15 = call ptr @Cba_VecCopy(ptr noundef %12, ptr noundef %13, i32 noundef %14)
  store ptr %15, ptr %9, align 8
  store i32 0, ptr %11, align 4
  store i32 0, ptr %10, align 4
  br label %16

16:                                               ; preds = %47, %4
  %17 = load i32, ptr %10, align 4
  %18 = load i32, ptr %7, align 4
  %19 = icmp slt i32 %17, %18
  br i1 %19, label %20, label %50

20:                                               ; preds = %16
  %21 = load ptr, ptr %5, align 8
  %22 = load i32, ptr %11, align 4
  %23 = load ptr, ptr %9, align 8
  %24 = load i32, ptr %10, align 4
  %25 = sext i32 %24 to i64
  %26 = getelementptr inbounds i32, ptr %23, i64 %25
  %27 = load i32, ptr %26, align 4
  %28 = call i32 @Abc_LitNot(i32 noundef %27)
  %29 = load ptr, ptr %9, align 8
  %30 = load i32, ptr %10, align 4
  %31 = sext i32 %30 to i64
  %32 = getelementptr inbounds i32, ptr %29, i64 %31
  %33 = load i32, ptr %32, align 4
  %34 = call i32 @Gia_ManHashMux(ptr noundef %21, i32 noundef %22, i32 noundef %28, i32 noundef %33)
  %35 = load ptr, ptr %9, align 8
  %36 = load i32, ptr %10, align 4
  %37 = sext i32 %36 to i64
  %38 = getelementptr inbounds i32, ptr %35, i64 %37
  store i32 %34, ptr %38, align 4
  %39 = load ptr, ptr %5, align 8
  %40 = load i32, ptr %11, align 4
  %41 = load ptr, ptr %6, align 8
  %42 = load i32, ptr %10, align 4
  %43 = sext i32 %42 to i64
  %44 = getelementptr inbounds i32, ptr %41, i64 %43
  %45 = load i32, ptr %44, align 4
  %46 = call i32 @Gia_ManHashOr(ptr noundef %39, i32 noundef %40, i32 noundef %45)
  store i32 %46, ptr %11, align 4
  br label %47

47:                                               ; preds = %20
  %48 = load i32, ptr %10, align 4
  %49 = add nsw i32 %48, 1
  store i32 %49, ptr %10, align 4
  br label %16, !llvm.loop !29

50:                                               ; preds = %16
  ret void
}