; Function Attrs: nounwind uwtable
define void @Cba_BlastMinus(ptr noundef %0, ptr noundef readonly captures(none) %1, i32 noundef %2, ptr noundef captures(none) initializes((4, 8)) %3) local_unnamed_addr #0 {
  %5 = tail call ptr @Cba_VecCopy(ptr noundef %3, ptr noundef %1, i32 noundef %2)
  %6 = icmp sgt i32 %2, 0
  br i1 %6, label %.lr.ph.preheader, label %._crit_edge

.lr.ph.preheader:                                 ; preds = %4
  %wide.trip.count = zext nneg i32 %2 to i64
  br label %.lr.ph

.lr.ph:                                           ; preds = %.lr.ph.preheader, %.lr.ph
  %indvars.iv = phi i64 [ 0, %.lr.ph.preheader ], [ %indvars.iv.next, %.lr.ph ]
  %.019 = phi i32 [ 0, %.lr.ph.preheader ], [ %13, %.lr.ph ]
  %7 = getelementptr inbounds nuw i32, ptr %5, i64 %indvars.iv
  %8 = load i32, ptr %7, align 4
  %9 = xor i32 %8, 1
  %10 = tail call i32 @Gia_ManHashMux(ptr noundef %0, i32 noundef %.019, i32 noundef %9, i32 noundef %8) #20
  store i32 %10, ptr %7, align 4
  %11 = getelementptr inbounds nuw i32, ptr %1, i64 %indvars.iv
  %12 = load i32, ptr %11, align 4
  %13 = tail call i32 @Gia_ManHashOr(ptr noundef %0, i32 noundef %.019, i32 noundef %12) #20
  %indvars.iv.next = add nuw nsw i64 %indvars.iv, 1
  %exitcond.not = icmp eq i64 %indvars.iv.next, %wide.trip.count
  br i1 %exitcond.not, label %._crit_edge, label %.lr.ph, !llvm.loop !29

._crit_edge:                                      ; preds = %.lr.ph, %4
  ret void
}